(dp0
S'engine'
p1
S'pdflatex'
p2
sS'packages'
p3
c__builtin__
set
p4
((lp5
S'comment'
p6
aS'hyperref'
p7
aS'stmaryrd'
p8
aS'color'
p9
aS'xspace'
p10
aS'amsmath'
p11
aS'url'
p12
aS'adjustbox'
p13
aS'array'
p14
aS'graphicx'
p15
aS'subfig'
p16
atp17
Rp18
sS'files_with_guttermarks'
p19
g4
((lp20
S'/Users/Lizzie/Documents/Conference Submissions/USEC 2015/key-manage/LaTeX/sections/08-newtable.tex'
p21
aS'main.tex'
p22
atp23
Rp24
sS'synctex'
p25
I01
s.